target datalayout = "e-m:e-p270:32:32-p271:32:32-p272:64:64-i64:64-i128:128-f80:128-n8:16:32:64-S128"
target triple = "x86_64-pc-linux-gnu"

%struct.prov_siv_ctx_st = type { i32, i8, i64, i64, %struct.siv128_context, ptr, ptr, ptr, ptr }
%struct.siv128_context = type { %union.siv_block_u, %union.siv_block_u, ptr, ptr, ptr, i32, i32 }
%union.siv_block_u = type { [2 x i64] }
%struct.prov_cipher_hw_aes_siv_st = type { ptr, ptr, ptr, ptr, ptr, ptr }
%struct.ossl_param_st = type { ptr, i32, ptr, i64, i64 }

@.str = private unnamed_addr constant [62 x i8] c"../openssl/providers/implementations/ciphers/cipher_aes_siv.c\00", align 1
@.str.1 = private unnamed_addr constant [4 x i8] c"tag\00", align 1
@.str.3 = private unnamed_addr constant [7 x i8] c"keylen\00", align 1
@__func__.aes_siv_set_ctx_params = private unnamed_addr constant [23 x i8] c"aes_siv_set_ctx_params\00", align 1
@.str.5 = private unnamed_addr constant [6 x i8] c"speed\00", align 1

; Function Attrs: inlinehint nounwind uwtable
define internal i32 @ossl_param_is_empty(ptr noundef %0) #3 {
  %2 = alloca ptr, align 8
  store ptr %0, ptr %2, align 8, !tbaa !26
  %3 = load ptr, ptr %2, align 8, !tbaa !26
  %4 = icmp eq ptr %3, null
  br i1 %4, label %10, label %5

5:                                                ; preds = %1
  %6 = load ptr, ptr %2, align 8, !tbaa !26
  %7 = getelementptr inbounds nuw %struct.ossl_param_st, ptr %6, i32 0, i32 0
  %8 = load ptr, ptr %7, align 8, !tbaa !45
  %9 = icmp eq ptr %8, null
  br label %10

10:                                               ; preds = %5, %1
  %11 = phi i1 [ true, %1 ], [ %9, %5 ]
  %12 = zext i1 %11 to i32
  ret i32 %12
}

; Function Attrs: nounwind uwtable
define internal i32 @aes_siv_set_ctx_params(ptr noundef %0, ptr noundef %1) #0 {
  %3 = alloca i32, align 4
  %4 = alloca ptr, align 8
  %5 = alloca ptr, align 8
  %6 = alloca ptr, align 8
  %7 = alloca ptr, align 8
  %8 = alloca i32, align 4
  %9 = alloca i32, align 4
  %10 = alloca i64, align 8
  store ptr %0, ptr %4, align 8, !tbaa !3
  store ptr %1, ptr %5, align 8, !tbaa !26
  call void @llvm.lifetime.start.p0(i64 8, ptr %6) #4
  %11 = load ptr, ptr %4, align 8, !tbaa !3
  store ptr %11, ptr %6, align 8, !tbaa !7
  call void @llvm.lifetime.start.p0(i64 8, ptr %7) #4
  call void @llvm.lifetime.start.p0(i64 4, ptr %8) #4
  store i32 0, ptr %8, align 4, !tbaa !38
  %12 = load ptr, ptr %5, align 8, !tbaa !26
  %13 = call i32 @ossl_param_is_empty(ptr noundef %12)
  %14 = icmp ne i32 %13, 0
  br i1 %14, label %15, label %16

15:                                               ; preds = %2
  store i32 1, ptr %3, align 4
  store i32 1, ptr %9, align 4
  br label %91

16:                                               ; preds = %2
  %17 = load ptr, ptr %5, align 8, !tbaa !26
  %18 = call ptr @OSSL_PARAM_locate_const(ptr noundef %17, ptr noundef @.str.1)
  store ptr %18, ptr %7, align 8, !tbaa !26
  %19 = load ptr, ptr %7, align 8, !tbaa !26
  %20 = icmp ne ptr %19, null
  br i1 %20, label %21, label %51

21:                                               ; preds = %16
  %22 = load ptr, ptr %6, align 8, !tbaa !7
  %23 = getelementptr inbounds nuw %struct.prov_siv_ctx_st, ptr %22, i32 0, i32 1
  %24 = load i8, ptr %23, align 4
  %25 = and i8 %24, 1
  %26 = zext i8 %25 to i32
  %27 = icmp ne i32 %26, 0
  br i1 %27, label %28, label %29

28:                                               ; preds = %21
  store i32 1, ptr %3, align 4
  store i32 1, ptr %9, align 4
  br label %91

29:                                               ; preds = %21
  %30 = load ptr, ptr %7, align 8, !tbaa !26
  %31 = getelementptr inbounds nuw %struct.ossl_param_st, ptr %30, i32 0, i32 1
  %32 = load i32, ptr %31, align 8, !tbaa !33
  %33 = icmp ne i32 %32, 5
  br i1 %33, label %49, label %34

34:                                               ; preds = %29
  %35 = load ptr, ptr %6, align 8, !tbaa !7
  %36 = getelementptr inbounds nuw %struct.prov_siv_ctx_st, ptr %35, i32 0, i32 7
  %37 = load ptr, ptr %36, align 8, !tbaa !9
  %38 = getelementptr inbounds nuw %struct.prov_cipher_hw_aes_siv_st, ptr %37, i32 0, i32 3
  %39 = load ptr, ptr %38, align 8, !tbaa !39
  %40 = load ptr, ptr %6, align 8, !tbaa !7
  %41 = load ptr, ptr %7, align 8, !tbaa !26
  %42 = getelementptr inbounds nuw %struct.ossl_param_st, ptr %41, i32 0, i32 2
  %43 = load ptr, ptr %42, align 8, !tbaa !40
  %44 = load ptr, ptr %7, align 8, !tbaa !26
  %45 = getelementptr inbounds nuw %struct.ossl_param_st, ptr %44, i32 0, i32 3
  %46 = load i64, ptr %45, align 8, !tbaa !35
  %47 = call i32 %39(ptr noundef %40, ptr noundef %43, i64 noundef %46)
  %48 = icmp ne i32 %47, 0
  br i1 %48, label %50, label %49

49:                                               ; preds = %34, %29
  call void @ERR_new()
  call void @ERR_set_debug(ptr noundef @.str, i32 noundef 214, ptr noundef @__func__.aes_siv_set_ctx_params)
  call void (i32, i32, ptr, ...) @ERR_set_error(i32 noundef 57, i32 noundef 103, ptr noundef null)
  store i32 0, ptr %3, align 4
  store i32 1, ptr %9, align 4
  br label %91

50:                                               ; preds = %34
  br label %51

51:                                               ; preds = %50, %16
  %52 = load ptr, ptr %5, align 8, !tbaa !26
  %53 = call ptr @OSSL_PARAM_locate_const(ptr noundef %52, ptr noundef @.str.5)
  store ptr %53, ptr %7, align 8, !tbaa !26
  %54 = load ptr, ptr %7, align 8, !tbaa !26
  %55 = icmp ne ptr %54, null
  br i1 %55, label %56, label %69

56:                                               ; preds = %51
  %57 = load ptr, ptr %7, align 8, !tbaa !26
  %58 = call i32 @OSSL_PARAM_get_uint(ptr noundef %57, ptr noundef %8)
  %59 = icmp ne i32 %58, 0
  br i1 %59, label %61, label %60

60:                                               ; preds = %56
  call void @ERR_new()
  call void @ERR_set_debug(ptr noundef @.str, i32 noundef 221, ptr noundef @__func__.aes_siv_set_ctx_params)
  call void (i32, i32, ptr, ...) @ERR_set_error(i32 noundef 57, i32 noundef 103, ptr noundef null)
  store i32 0, ptr %3, align 4
  store i32 1, ptr %9, align 4
  br label %91

61:                                               ; preds = %56
  %62 = load ptr, ptr %6, align 8, !tbaa !7
  %63 = getelementptr inbounds nuw %struct.prov_siv_ctx_st, ptr %62, i32 0, i32 7
  %64 = load ptr, ptr %63, align 8, !tbaa !9
  %65 = getelementptr inbounds nuw %struct.prov_cipher_hw_aes_siv_st, ptr %64, i32 0, i32 2
  %66 = load ptr, ptr %65, align 8, !tbaa !41
  %67 = load ptr, ptr %6, align 8, !tbaa !7
  %68 = load i32, ptr %8, align 4, !tbaa !38
  call void %66(ptr noundef %67, i32 noundef %68)
  br label %69

69:                                               ; preds = %61, %51
  %70 = load ptr, ptr %5, align 8, !tbaa !26
  %71 = call ptr @OSSL_PARAM_locate_const(ptr noundef %70, ptr noundef @.str.3)
  store ptr %71, ptr %7, align 8, !tbaa !26
  %72 = load ptr, ptr %7, align 8, !tbaa !26
  %73 = icmp ne ptr %72, null
  br i1 %73, label %74, label %90

74:                                               ; preds = %69
  call void @llvm.lifetime.start.p0(i64 8, ptr %10) #4
  %75 = load ptr, ptr %7, align 8, !tbaa !26
  %76 = call i32 @OSSL_PARAM_get_size_t(ptr noundef %75, ptr noundef %10)
  %77 = icmp ne i32 %76, 0
  br i1 %77, label %79, label %78

78:                                               ; preds = %74
  call void @ERR_new()
  call void @ERR_set_debug(ptr noundef @.str, i32 noundef 231, ptr noundef @__func__.aes_siv_set_ctx_params)
  call void (i32, i32, ptr, ...) @ERR_set_error(i32 noundef 57, i32 noundef 103, ptr noundef null)
  store i32 0, ptr %3, align 4
  store i32 1, ptr %9, align 4
  br label %87

79:                                               ; preds = %74
  %80 = load i64, ptr %10, align 8, !tbaa !25
  %81 = load ptr, ptr %6, align 8, !tbaa !7
  %82 = getelementptr inbounds nuw %struct.prov_siv_ctx_st, ptr %81, i32 0, i32 2
  %83 = load i64, ptr %82, align 8, !tbaa !37
  %84 = icmp ne i64 %80, %83
  br i1 %84, label %85, label %86

85:                                               ; preds = %79
  store i32 0, ptr %3, align 4
  store i32 1, ptr %9, align 4
  br label %87

86:                                               ; preds = %79
  store i32 0, ptr %9, align 4
  br label %87

87:                                               ; preds = %86, %85, %78
  call void @llvm.lifetime.end.p0(i64 8, ptr %10) #4
  %88 = load i32, ptr %9, align 4
  switch i32 %88, label %91 [
    i32 0, label %89
  ]

89:                                               ; preds = %87
  br label %90

90:                                               ; preds = %89, %69
  store i32 1, ptr %3, align 4
  store i32 1, ptr %9, align 4
  br label %91

91:                                               ; preds = %90, %87, %60, %49, %28, %15
  call void @llvm.lifetime.end.p0(i64 4, ptr %8) #4
  call void @llvm.lifetime.end.p0(i64 8, ptr %7) #4
  call void @llvm.lifetime.end.p0(i64 8, ptr %6) #4
  %92 = load i32, ptr %3, align 4
  ret i32 %92
}