; Function Attrs: nounwind uwtable
define internal range(i32 0, 2) i32 @aes_siv_set_ctx_params(ptr noundef %0, ptr noundef %1) #0 {
  %3 = alloca i32, align 4
  %4 = alloca i64, align 8
  call void @llvm.lifetime.start.p0(i64 4, ptr nonnull %3) #4
  store i32 0, ptr %3, align 4, !tbaa !31
  %5 = icmp eq ptr %1, null
  br i1 %5, label %ossl_param_is_empty.exit.thread, label %ossl_param_is_empty.exit

ossl_param_is_empty.exit:                         ; preds = %2
  %6 = load ptr, ptr %1, align 8, !tbaa !32
  %.not = icmp eq ptr %6, null
  br i1 %.not, label %ossl_param_is_empty.exit.thread, label %7

7:                                                ; preds = %ossl_param_is_empty.exit
  %8 = tail call ptr @OSSL_PARAM_locate_const(ptr noundef nonnull %1, ptr noundef nonnull @.str.1) #4
  %.not24 = icmp eq ptr %8, null
  br i1 %.not24, label %27, label %9

9:                                                ; preds = %7
  %10 = getelementptr inbounds nuw i8, ptr %0, i64 4
  %11 = load i8, ptr %10, align 4
  %12 = and i8 %11, 1
  %.not25 = icmp eq i8 %12, 0
  br i1 %.not25, label %13, label %ossl_param_is_empty.exit.thread

13:                                               ; preds = %9
  %14 = getelementptr inbounds nuw i8, ptr %8, i64 8
  %15 = load i32, ptr %14, align 8, !tbaa !27
  %.not26 = icmp eq i32 %15, 5
  br i1 %.not26, label %16, label %26

16:                                               ; preds = %13
  %17 = getelementptr inbounds nuw i8, ptr %0, i64 104
  %18 = load ptr, ptr %17, align 8, !tbaa !19
  %19 = getelementptr inbounds nuw i8, ptr %18, i64 24
  %20 = load ptr, ptr %19, align 8, !tbaa !33
  %21 = getelementptr inbounds nuw i8, ptr %8, i64 16
  %22 = load ptr, ptr %21, align 8, !tbaa !34
  %23 = getelementptr inbounds nuw i8, ptr %8, i64 24
  %24 = load i64, ptr %23, align 8, !tbaa !30
  %25 = tail call i32 %20(ptr noundef nonnull %0, ptr noundef %22, i64 noundef %24) #4
  %.not27 = icmp eq i32 %25, 0
  br i1 %.not27, label %26, label %27

26:                                               ; preds = %16, %13
  tail call void @ERR_new() #4
  tail call void @ERR_set_debug(ptr noundef nonnull @.str, i32 noundef 214, ptr noundef nonnull @__func__.aes_siv_set_ctx_params) #4
  tail call void (i32, i32, ptr, ...) @ERR_set_error(i32 noundef 57, i32 noundef 103, ptr noundef null) #4
  br label %ossl_param_is_empty.exit.thread

27:                                               ; preds = %16, %7
  %28 = tail call ptr @OSSL_PARAM_locate_const(ptr noundef nonnull %1, ptr noundef nonnull @.str.5) #4
  %.not28 = icmp eq ptr %28, null
  br i1 %.not28, label %38, label %29

29:                                               ; preds = %27
  %30 = call i32 @OSSL_PARAM_get_uint(ptr noundef nonnull %28, ptr noundef nonnull %3) #4
  %.not29 = icmp eq i32 %30, 0
  br i1 %.not29, label %31, label %32

31:                                               ; preds = %29
  call void @ERR_new() #4
  call void @ERR_set_debug(ptr noundef nonnull @.str, i32 noundef 221, ptr noundef nonnull @__func__.aes_siv_set_ctx_params) #4
  call void (i32, i32, ptr, ...) @ERR_set_error(i32 noundef 57, i32 noundef 103, ptr noundef null) #4
  br label %ossl_param_is_empty.exit.thread

32:                                               ; preds = %29
  %33 = getelementptr inbounds nuw i8, ptr %0, i64 104
  %34 = load ptr, ptr %33, align 8, !tbaa !19
  %35 = getelementptr inbounds nuw i8, ptr %34, i64 16
  %36 = load ptr, ptr %35, align 8, !tbaa !35
  %37 = load i32, ptr %3, align 4, !tbaa !31
  call void %36(ptr noundef %0, i32 noundef %37) #4
  br label %38

38:                                               ; preds = %32, %27
  %39 = call ptr @OSSL_PARAM_locate_const(ptr noundef nonnull %1, ptr noundef nonnull @.str.3) #4
  %.not30 = icmp eq ptr %39, null
  br i1 %.not30, label %46, label %40

40:                                               ; preds = %38
  call void @llvm.lifetime.start.p0(i64 8, ptr nonnull %4) #4
  %41 = call i32 @OSSL_PARAM_get_size_t(ptr noundef nonnull %39, ptr noundef nonnull %4) #4
  %.not31 = icmp eq i32 %41, 0
  br i1 %.not31, label %.critedge, label %42

.critedge:                                        ; preds = %40
  call void @ERR_new() #4
  call void @ERR_set_debug(ptr noundef nonnull @.str, i32 noundef 231, ptr noundef nonnull @__func__.aes_siv_set_ctx_params) #4
  call void (i32, i32, ptr, ...) @ERR_set_error(i32 noundef 57, i32 noundef 103, ptr noundef null) #4
  call void @llvm.lifetime.end.p0(i64 8, ptr nonnull %4) #4
  br label %ossl_param_is_empty.exit.thread

42:                                               ; preds = %40
  %43 = load i64, ptr %4, align 8, !tbaa !25
  %44 = getelementptr inbounds nuw i8, ptr %0, i64 8
  %45 = load i64, ptr %44, align 8, !tbaa !18
  %.not32 = icmp eq i64 %43, %45
  call void @llvm.lifetime.end.p0(i64 8, ptr nonnull %4) #4
  br i1 %.not32, label %46, label %ossl_param_is_empty.exit.thread

46:                                               ; preds = %42, %38
  br label %ossl_param_is_empty.exit.thread

ossl_param_is_empty.exit.thread:                  ; preds = %2, %.critedge, %9, %ossl_param_is_empty.exit, %42, %46, %31, %26
  %.020 = phi i32 [ 0, %26 ], [ 1, %46 ], [ 0, %42 ], [ 0, %31 ], [ 1, %ossl_param_is_empty.exit ], [ 1, %9 ], [ 0, %.critedge ], [ 1, %2 ]
  call void @llvm.lifetime.end.p0(i64 4, ptr nonnull %3) #4
  ret i32 %.020
}